target datalayout = "e-m:e-p270:32:32-p271:32:32-p272:64:64-i64:64-i128:128-f80:128-n8:16:32:64-S128"
target triple = "x86_64-pc-linux-gnu"

%"class.o3dgc::Static_Data_Model" = type { ptr, ptr, i32, i32, i32, i32 }

@.str.11 = private unnamed_addr constant [31 x i8] c"invalid number of data symbols\00", align 1
@.str.12 = private unnamed_addr constant [27 x i8] c"invalid symbol probability\00", align 1
@.str.13 = private unnamed_addr constant [22 x i8] c"invalid probabilities\00", align 1

; Function Attrs: mustprogress uwtable
define hidden void @_ZN5o3dgc17Static_Data_Model16set_distributionEjPKd(ptr noundef nonnull align 8 dereferenceable(32) %0, i32 noundef %1, ptr noundef %2) #0 align 2 {
  %4 = alloca ptr, align 8
  %5 = alloca i32, align 4
  %6 = alloca ptr, align 8
  %7 = alloca i32, align 4
  %8 = alloca i32, align 4
  %9 = alloca double, align 8
  %10 = alloca double, align 8
  %11 = alloca i32, align 4
  %12 = alloca i32, align 4
  store ptr %0, ptr %4, align 8
  store i32 %1, ptr %5, align 4
  store ptr %2, ptr %6, align 8
  %13 = load ptr, ptr %4, align 8
  %14 = load i32, ptr %5, align 4
  %15 = icmp ult i32 %14, 2
  br i1 %15, label %19, label %16

16:                                               ; preds = %3
  %17 = load i32, ptr %5, align 4
  %18 = icmp ugt i32 %17, 2048
  br i1 %18, label %19, label %20

19:                                               ; preds = %16, %3
  call void @_ZN5o3dgcL8AC_ErrorEPKc(ptr noundef @.str.11) #13
  unreachable

20:                                               ; preds = %16
  %21 = getelementptr inbounds nuw %"class.o3dgc::Static_Data_Model", ptr %13, i32 0, i32 2
  %22 = load i32, ptr %21, align 8
  %23 = load i32, ptr %5, align 4
  %24 = icmp ne i32 %22, %23
  br i1 %24, label %25, label %92

25:                                               ; preds = %20
  %26 = load i32, ptr %5, align 4
  %27 = getelementptr inbounds nuw %"class.o3dgc::Static_Data_Model", ptr %13, i32 0, i32 2
  store i32 %26, ptr %27, align 8
  %28 = getelementptr inbounds nuw %"class.o3dgc::Static_Data_Model", ptr %13, i32 0, i32 2
  %29 = load i32, ptr %28, align 8
  %30 = sub i32 %29, 1
  %31 = getelementptr inbounds nuw %"class.o3dgc::Static_Data_Model", ptr %13, i32 0, i32 3
  store i32 %30, ptr %31, align 4
  %32 = getelementptr inbounds nuw %"class.o3dgc::Static_Data_Model", ptr %13, i32 0, i32 0
  %33 = load ptr, ptr %32, align 8
  %34 = icmp eq ptr %33, null
  br i1 %34, label %36, label %35

35:                                               ; preds = %25
  call void @_ZdaPv(ptr noundef %33) #14
  br label %36

36:                                               ; preds = %35, %25
  %37 = getelementptr inbounds nuw %"class.o3dgc::Static_Data_Model", ptr %13, i32 0, i32 2
  %38 = load i32, ptr %37, align 8
  %39 = icmp ugt i32 %38, 16
  br i1 %39, label %40, label %78

40:                                               ; preds = %36
  call void @llvm.lifetime.start.p0(i64 4, ptr %7) #12
  store i32 3, ptr %7, align 4
  br label %41

41:                                               ; preds = %48, %40
  %42 = getelementptr inbounds nuw %"class.o3dgc::Static_Data_Model", ptr %13, i32 0, i32 2
  %43 = load i32, ptr %42, align 8
  %44 = load i32, ptr %7, align 4
  %45 = add i32 %44, 2
  %46 = shl i32 1, %45
  %47 = icmp ugt i32 %43, %46
  br i1 %47, label %48, label %51

48:                                               ; preds = %41
  %49 = load i32, ptr %7, align 4
  %50 = add i32 %49, 1
  store i32 %50, ptr %7, align 4
  br label %41, !llvm.loop !20

51:                                               ; preds = %41
  %52 = load i32, ptr %7, align 4
  %53 = shl i32 1, %52
  %54 = getelementptr inbounds nuw %"class.o3dgc::Static_Data_Model", ptr %13, i32 0, i32 4
  store i32 %53, ptr %54, align 8
  %55 = load i32, ptr %7, align 4
  %56 = sub i32 15, %55
  %57 = getelementptr inbounds nuw %"class.o3dgc::Static_Data_Model", ptr %13, i32 0, i32 5
  store i32 %56, ptr %57, align 4
  %58 = getelementptr inbounds nuw %"class.o3dgc::Static_Data_Model", ptr %13, i32 0, i32 2
  %59 = load i32, ptr %58, align 8
  %60 = getelementptr inbounds nuw %"class.o3dgc::Static_Data_Model", ptr %13, i32 0, i32 4
  %61 = load i32, ptr %60, align 8
  %62 = add i32 %59, %61
  %63 = add i32 %62, 2
  %64 = zext i32 %63 to i64
  %65 = call { i64, i1 } @llvm.umul.with.overflow.i64(i64 %64, i64 4)
  %66 = extractvalue { i64, i1 } %65, 1
  %67 = extractvalue { i64, i1 } %65, 0
  %68 = select i1 %66, i64 -1, i64 %67
  %69 = call noalias noundef nonnull ptr @_Znam(i64 noundef %68) #15
  %70 = getelementptr inbounds nuw %"class.o3dgc::Static_Data_Model", ptr %13, i32 0, i32 0
  store ptr %69, ptr %70, align 8
  %71 = getelementptr inbounds nuw %"class.o3dgc::Static_Data_Model", ptr %13, i32 0, i32 0
  %72 = load ptr, ptr %71, align 8
  %73 = getelementptr inbounds nuw %"class.o3dgc::Static_Data_Model", ptr %13, i32 0, i32 2
  %74 = load i32, ptr %73, align 8
  %75 = zext i32 %74 to i64
  %76 = getelementptr inbounds nuw i32, ptr %72, i64 %75
  %77 = getelementptr inbounds nuw %"class.o3dgc::Static_Data_Model", ptr %13, i32 0, i32 1
  store ptr %76, ptr %77, align 8
  call void @llvm.lifetime.end.p0(i64 4, ptr %7) #12
  br label %91

78:                                               ; preds = %36
  %79 = getelementptr inbounds nuw %"class.o3dgc::Static_Data_Model", ptr %13, i32 0, i32 1
  store ptr null, ptr %79, align 8
  %80 = getelementptr inbounds nuw %"class.o3dgc::Static_Data_Model", ptr %13, i32 0, i32 5
  store i32 0, ptr %80, align 4
  %81 = getelementptr inbounds nuw %"class.o3dgc::Static_Data_Model", ptr %13, i32 0, i32 4
  store i32 0, ptr %81, align 8
  %82 = getelementptr inbounds nuw %"class.o3dgc::Static_Data_Model", ptr %13, i32 0, i32 2
  %83 = load i32, ptr %82, align 8
  %84 = zext i32 %83 to i64
  %85 = call { i64, i1 } @llvm.umul.with.overflow.i64(i64 %84, i64 4)
  %86 = extractvalue { i64, i1 } %85, 1
  %87 = extractvalue { i64, i1 } %85, 0
  %88 = select i1 %86, i64 -1, i64 %87
  %89 = call noalias noundef nonnull ptr @_Znam(i64 noundef %88) #15
  %90 = getelementptr inbounds nuw %"class.o3dgc::Static_Data_Model", ptr %13, i32 0, i32 0
  store ptr %89, ptr %90, align 8
  br label %91

91:                                               ; preds = %78, %51
  br label %92

92:                                               ; preds = %91, %20
  call void @llvm.lifetime.start.p0(i64 4, ptr %8) #12
  store i32 0, ptr %8, align 4
  call void @llvm.lifetime.start.p0(i64 8, ptr %9) #12
  store double 0.000000e+00, ptr %9, align 8
  call void @llvm.lifetime.start.p0(i64 8, ptr %10) #12
  %93 = getelementptr inbounds nuw %"class.o3dgc::Static_Data_Model", ptr %13, i32 0, i32 2
  %94 = load i32, ptr %93, align 8
  %95 = uitofp i32 %94 to double
  %96 = fdiv double 1.000000e+00, %95
  store double %96, ptr %10, align 8
  call void @llvm.lifetime.start.p0(i64 4, ptr %11) #12
  store i32 0, ptr %11, align 4
  br label %97

97:                                               ; preds = %159, %92
  %98 = load i32, ptr %11, align 4
  %99 = getelementptr inbounds nuw %"class.o3dgc::Static_Data_Model", ptr %13, i32 0, i32 2
  %100 = load i32, ptr %99, align 8
  %101 = icmp ult i32 %98, %100
  br i1 %101, label %103, label %102

102:                                              ; preds = %97
  call void @llvm.lifetime.end.p0(i64 4, ptr %11) #12
  br label %162

103:                                              ; preds = %97
  %104 = load ptr, ptr %6, align 8
  %105 = icmp ne ptr %104, null
  br i1 %105, label %106, label %112

106:                                              ; preds = %103
  %107 = load ptr, ptr %6, align 8
  %108 = load i32, ptr %11, align 4
  %109 = zext i32 %108 to i64
  %110 = getelementptr inbounds nuw double, ptr %107, i64 %109
  %111 = load double, ptr %110, align 8
  store double %111, ptr %10, align 8
  br label %112

112:                                              ; preds = %106, %103
  %113 = load double, ptr %10, align 8
  %114 = fcmp olt double %113, 1.000000e-04
  br i1 %114, label %118, label %115

115:                                              ; preds = %112
  %116 = load double, ptr %10, align 8
  %117 = fcmp ogt double %116, 9.999000e-01
  br i1 %117, label %118, label %119

118:                                              ; preds = %115, %112
  call void @_ZN5o3dgcL8AC_ErrorEPKc(ptr noundef @.str.12) #13
  unreachable

119:                                              ; preds = %115
  %120 = load double, ptr %9, align 8
  %121 = fmul double %120, 3.276800e+04
  %122 = fptoui double %121 to i32
  %123 = getelementptr inbounds nuw %"class.o3dgc::Static_Data_Model", ptr %13, i32 0, i32 0
  %124 = load ptr, ptr %123, align 8
  %125 = load i32, ptr %11, align 4
  %126 = zext i32 %125 to i64
  %127 = getelementptr inbounds nuw i32, ptr %124, i64 %126
  store i32 %122, ptr %127, align 4
  %128 = load double, ptr %10, align 8
  %129 = load double, ptr %9, align 8
  %130 = fadd double %129, %128
  store double %130, ptr %9, align 8
  %131 = getelementptr inbounds nuw %"class.o3dgc::Static_Data_Model", ptr %13, i32 0, i32 4
  %132 = load i32, ptr %131, align 8
  %133 = icmp eq i32 %132, 0
  br i1 %133, label %134, label %135

134:                                              ; preds = %119
  br label %159

135:                                              ; preds = %119
  call void @llvm.lifetime.start.p0(i64 4, ptr %12) #12
  %136 = getelementptr inbounds nuw %"class.o3dgc::Static_Data_Model", ptr %13, i32 0, i32 0
  %137 = load ptr, ptr %136, align 8
  %138 = load i32, ptr %11, align 4
  %139 = zext i32 %138 to i64
  %140 = getelementptr inbounds nuw i32, ptr %137, i64 %139
  %141 = load i32, ptr %140, align 4
  %142 = getelementptr inbounds nuw %"class.o3dgc::Static_Data_Model", ptr %13, i32 0, i32 5
  %143 = load i32, ptr %142, align 4
  %144 = lshr i32 %141, %143
  store i32 %144, ptr %12, align 4
  br label %145

145:                                              ; preds = %149, %135
  %146 = load i32, ptr %8, align 4
  %147 = load i32, ptr %12, align 4
  %148 = icmp ult i32 %146, %147
  br i1 %148, label %149, label %158

149:                                              ; preds = %145
  %150 = load i32, ptr %11, align 4
  %151 = sub i32 %150, 1
  %152 = getelementptr inbounds nuw %"class.o3dgc::Static_Data_Model", ptr %13, i32 0, i32 1
  %153 = load ptr, ptr %152, align 8
  %154 = load i32, ptr %8, align 4
  %155 = add i32 %154, 1
  store i32 %155, ptr %8, align 4
  %156 = zext i32 %155 to i64
  %157 = getelementptr inbounds nuw i32, ptr %153, i64 %156
  store i32 %151, ptr %157, align 4
  br label %145, !llvm.loop !21

158:                                              ; preds = %145
  call void @llvm.lifetime.end.p0(i64 4, ptr %12) #12
  br label %159

159:                                              ; preds = %158, %134
  %160 = load i32, ptr %11, align 4
  %161 = add i32 %160, 1
  store i32 %161, ptr %11, align 4
  br label %97, !llvm.loop !22

162:                                              ; preds = %102
  %163 = getelementptr inbounds nuw %"class.o3dgc::Static_Data_Model", ptr %13, i32 0, i32 4
  %164 = load i32, ptr %163, align 8
  %165 = icmp ne i32 %164, 0
  br i1 %165, label %166, label %186

166:                                              ; preds = %162
  %167 = getelementptr inbounds nuw %"class.o3dgc::Static_Data_Model", ptr %13, i32 0, i32 1
  %168 = load ptr, ptr %167, align 8
  %169 = getelementptr inbounds i32, ptr %168, i64 0
  store i32 0, ptr %169, align 4
  br label %170

170:                                              ; preds = %175, %166
  %171 = load i32, ptr %8, align 4
  %172 = getelementptr inbounds nuw %"class.o3dgc::Static_Data_Model", ptr %13, i32 0, i32 4
  %173 = load i32, ptr %172, align 8
  %174 = icmp ule i32 %171, %173
  br i1 %174, label %175, label %185

175:                                              ; preds = %170
  %176 = getelementptr inbounds nuw %"class.o3dgc::Static_Data_Model", ptr %13, i32 0, i32 2
  %177 = load i32, ptr %176, align 8
  %178 = sub i32 %177, 1
  %179 = getelementptr inbounds nuw %"class.o3dgc::Static_Data_Model", ptr %13, i32 0, i32 1
  %180 = load ptr, ptr %179, align 8
  %181 = load i32, ptr %8, align 4
  %182 = add i32 %181, 1
  store i32 %182, ptr %8, align 4
  %183 = zext i32 %182 to i64
  %184 = getelementptr inbounds nuw i32, ptr %180, i64 %183
  store i32 %178, ptr %184, align 4
  br label %170, !llvm.loop !23

185:                                              ; preds = %170
  br label %186

186:                                              ; preds = %185, %162
  %187 = load double, ptr %9, align 8
  %188 = fcmp olt double %187, 9.999000e-01
  br i1 %188, label %192, label %189

189:                                              ; preds = %186
  %190 = load double, ptr %9, align 8
  %191 = fcmp ogt double %190, 1.000100e+00
  br i1 %191, label %192, label %193

192:                                              ; preds = %189, %186
  call void @_ZN5o3dgcL8AC_ErrorEPKc(ptr noundef @.str.13) #13
  unreachable

193:                                              ; preds = %189
  call void @llvm.lifetime.end.p0(i64 8, ptr %10) #12
  call void @llvm.lifetime.end.p0(i64 8, ptr %9) #12
  call void @llvm.lifetime.end.p0(i64 4, ptr %8) #12
  ret void
}