; Function Attrs: mustprogress uwtable
define hidden void @_ZN5o3dgc17Static_Data_Model16set_distributionEjPKd(ptr noundef nonnull align 8 captures(none) dereferenceable(32) %0, i32 noundef %1, ptr noundef readonly captures(address_is_null) %2) local_unnamed_addr #5 align 2 {
  %4 = add i32 %1, -2049
  %or.cond = icmp ult i32 %4, -2047
  br i1 %or.cond, label %5, label %6

5:                                                ; preds = %3
  tail call fastcc void @_ZN5o3dgcL8AC_ErrorEPKc(ptr noundef nonnull @.str.11) #16
  unreachable

6:                                                ; preds = %3
  %7 = getelementptr inbounds nuw i8, ptr %0, i64 16
  %8 = load i32, ptr %7, align 8
  %.not = icmp eq i32 %8, %1
  br i1 %.not, label %.lr.ph53, label %9

9:                                                ; preds = %6
  store i32 %1, ptr %7, align 8
  %10 = add nsw i32 %1, -1
  %11 = getelementptr inbounds nuw i8, ptr %0, i64 20
  store i32 %10, ptr %11, align 4
  %12 = load ptr, ptr %0, align 8
  %13 = icmp eq ptr %12, null
  br i1 %13, label %15, label %14

14:                                               ; preds = %9
  tail call void @_ZdaPv(ptr noundef nonnull %12) #17
  %.pre = load i32, ptr %7, align 8
  br label %15

15:                                               ; preds = %14, %9
  %16 = phi i32 [ %.pre, %14 ], [ %1, %9 ]
  %17 = icmp ugt i32 %16, 16
  br i1 %17, label %.preheader, label %35

.preheader:                                       ; preds = %15, %.preheader
  %.0 = phi i32 [ %21, %.preheader ], [ 3, %15 ]
  %18 = add i32 %.0, 2
  %19 = shl nuw i32 1, %18
  %20 = icmp ugt i32 %16, %19
  %21 = add i32 %.0, 1
  br i1 %20, label %.preheader, label %22, !llvm.loop !18

22:                                               ; preds = %.preheader
  %23 = shl nuw i32 1, %.0
  %24 = getelementptr inbounds nuw i8, ptr %0, i64 24
  store i32 %23, ptr %24, align 8
  %25 = sub i32 15, %.0
  %26 = getelementptr inbounds nuw i8, ptr %0, i64 28
  store i32 %25, ptr %26, align 4
  %27 = add nuw i32 %16, 2
  %28 = add i32 %27, %23
  %29 = zext i32 %28 to i64
  %30 = shl nuw nsw i64 %29, 2
  %31 = tail call noalias noundef nonnull ptr @_Znam(i64 noundef %30) #18
  store ptr %31, ptr %0, align 8
  %32 = zext i32 %16 to i64
  %33 = getelementptr inbounds nuw i32, ptr %31, i64 %32
  %34 = getelementptr inbounds nuw i8, ptr %0, i64 8
  store ptr %33, ptr %34, align 8
  br label %.lr.ph53

35:                                               ; preds = %15
  %36 = getelementptr inbounds nuw i8, ptr %0, i64 8
  store ptr null, ptr %36, align 8
  %37 = getelementptr inbounds nuw i8, ptr %0, i64 28
  store i32 0, ptr %37, align 4
  %38 = getelementptr inbounds nuw i8, ptr %0, i64 24
  store i32 0, ptr %38, align 8
  %39 = shl nuw nsw i32 %16, 2
  %40 = zext nneg i32 %39 to i64
  %41 = tail call noalias noundef nonnull ptr @_Znam(i64 noundef %40) #18
  store ptr %41, ptr %0, align 8
  %.not61 = icmp eq i32 %16, 0
  br i1 %.not61, label %._crit_edge, label %.lr.ph53

.lr.ph53:                                         ; preds = %6, %22, %35
  %.pn.in = phi i32 [ %16, %35 ], [ %1, %6 ], [ %16, %22 ]
  %.pn = uitofp i32 %.pn.in to double
  %42 = fdiv double 1.000000e+00, %.pn
  %.not43 = icmp eq ptr %2, null
  %43 = getelementptr inbounds nuw i8, ptr %0, i64 24
  %44 = getelementptr inbounds nuw i8, ptr %0, i64 28
  %45 = getelementptr inbounds nuw i8, ptr %0, i64 8
  br i1 %.not43, label %.lr.ph53.split.us, label %.lr.ph53.split

.lr.ph53.split.us:                                ; preds = %.lr.ph53
  %46 = fcmp olt double %42, 1.000000e-04
  %47 = fcmp ogt double %42, 9.999000e-01
  %or.cond3.us = or i1 %46, %47
  br i1 %or.cond3.us, label %.split.us, label %.lr.ph53.split.us.split

.lr.ph53.split.us.split:                          ; preds = %.lr.ph53.split.us, %.loopexit44.us
  %indvars.iv75 = phi i64 [ %indvars.iv.next76, %.loopexit44.us ], [ 0, %.lr.ph53.split.us ]
  %.03549.us = phi double [ %52, %.loopexit44.us ], [ 0.000000e+00, %.lr.ph53.split.us ]
  %.03648.us = phi i32 [ %.137.us, %.loopexit44.us ], [ 0, %.lr.ph53.split.us ]
  %48 = fmul double %.03549.us, 3.276800e+04
  %49 = fptoui double %48 to i32
  %50 = load ptr, ptr %0, align 8
  %51 = getelementptr inbounds nuw i32, ptr %50, i64 %indvars.iv75
  store i32 %49, ptr %51, align 4
  %52 = fadd double %.03549.us, %42
  %53 = load i32, ptr %43, align 8
  %54 = icmp eq i32 %53, 0
  br i1 %54, label %.loopexit44.us, label %55

55:                                               ; preds = %.lr.ph53.split.us.split
  %56 = load ptr, ptr %0, align 8
  %57 = getelementptr inbounds nuw i32, ptr %56, i64 %indvars.iv75
  %58 = load i32, ptr %57, align 4
  %59 = load i32, ptr %44, align 4
  %60 = lshr i32 %58, %59
  %61 = icmp ult i32 %.03648.us, %60
  br i1 %61, label %.lr.ph.us, label %.loopexit44.us

62:                                               ; preds = %.lr.ph.us, %62
  %indvars.iv70 = phi i64 [ %70, %.lr.ph.us ], [ %indvars.iv.next71, %62 ]
  %63 = load ptr, ptr %45, align 8
  %indvars.iv.next71 = add nuw nsw i64 %indvars.iv70, 1
  %64 = getelementptr inbounds nuw i32, ptr %63, i64 %indvars.iv.next71
  store i32 %69, ptr %64, align 4
  %exitcond74.not = icmp eq i64 %indvars.iv.next71, %wide.trip.count73
  br i1 %exitcond74.not, label %.loopexit44.us, label %62, !llvm.loop !19

.loopexit44.us:                                   ; preds = %62, %55, %.lr.ph53.split.us.split
  %.137.us = phi i32 [ %.03648.us, %.lr.ph53.split.us.split ], [ %.03648.us, %55 ], [ %60, %62 ]
  %indvars.iv.next76 = add nuw nsw i64 %indvars.iv75, 1
  %65 = load i32, ptr %7, align 8
  %66 = zext i32 %65 to i64
  %67 = icmp samesign ult i64 %indvars.iv.next76, %66
  br i1 %67, label %.lr.ph53.split.us.split, label %._crit_edge, !llvm.loop !20

.lr.ph.us:                                        ; preds = %55
  %68 = trunc nuw i64 %indvars.iv75 to i32
  %69 = add i32 %68, -1
  %70 = zext i32 %.03648.us to i64
  %wide.trip.count73 = zext i32 %60 to i64
  br label %62

._crit_edge:                                      ; preds = %.loopexit44, %.loopexit44.us, %35
  %.036.lcssa = phi i32 [ 0, %35 ], [ %.137.us, %.loopexit44.us ], [ %.137, %.loopexit44 ]
  %.035.lcssa = phi double [ 0.000000e+00, %35 ], [ %52, %.loopexit44.us ], [ %82, %.loopexit44 ]
  %71 = getelementptr inbounds nuw i8, ptr %0, i64 24
  %72 = load i32, ptr %71, align 8
  %.not41 = icmp eq i32 %72, 0
  br i1 %.not41, label %.loopexit, label %101

.lr.ph53.split:                                   ; preds = %.lr.ph53, %.loopexit44
  %indvars.iv67 = phi i64 [ %indvars.iv.next68, %.loopexit44 ], [ 0, %.lr.ph53 ]
  %.03549 = phi double [ %82, %.loopexit44 ], [ 0.000000e+00, %.lr.ph53 ]
  %.03648 = phi i32 [ %.137, %.loopexit44 ], [ 0, %.lr.ph53 ]
  %73 = getelementptr inbounds nuw double, ptr %2, i64 %indvars.iv67
  %74 = load double, ptr %73, align 8
  %75 = fcmp olt double %74, 1.000000e-04
  %76 = fcmp ogt double %74, 9.999000e-01
  %or.cond3 = or i1 %75, %76
  br i1 %or.cond3, label %.split.us, label %77

.split.us:                                        ; preds = %.lr.ph53.split, %.lr.ph53.split.us
  tail call fastcc void @_ZN5o3dgcL8AC_ErrorEPKc(ptr noundef nonnull @.str.12) #16
  unreachable

77:                                               ; preds = %.lr.ph53.split
  %78 = fmul double %.03549, 3.276800e+04
  %79 = fptoui double %78 to i32
  %80 = load ptr, ptr %0, align 8
  %81 = getelementptr inbounds nuw i32, ptr %80, i64 %indvars.iv67
  store i32 %79, ptr %81, align 4
  %82 = fadd double %.03549, %74
  %83 = load i32, ptr %43, align 8
  %84 = icmp eq i32 %83, 0
  br i1 %84, label %.loopexit44, label %85

85:                                               ; preds = %77
  %86 = load ptr, ptr %0, align 8
  %87 = getelementptr inbounds nuw i32, ptr %86, i64 %indvars.iv67
  %88 = load i32, ptr %87, align 4
  %89 = load i32, ptr %44, align 4
  %90 = lshr i32 %88, %89
  %91 = icmp ult i32 %.03648, %90
  br i1 %91, label %.lr.ph, label %.loopexit44

.lr.ph:                                           ; preds = %85
  %92 = trunc nuw i64 %indvars.iv67 to i32
  %93 = add i32 %92, -1
  %94 = zext i32 %.03648 to i64
  %wide.trip.count = zext i32 %90 to i64
  br label %95

95:                                               ; preds = %.lr.ph, %95
  %indvars.iv = phi i64 [ %94, %.lr.ph ], [ %indvars.iv.next, %95 ]
  %96 = load ptr, ptr %45, align 8
  %indvars.iv.next = add nuw nsw i64 %indvars.iv, 1
  %97 = getelementptr inbounds nuw i32, ptr %96, i64 %indvars.iv.next
  store i32 %93, ptr %97, align 4
  %exitcond.not = icmp eq i64 %indvars.iv.next, %wide.trip.count
  br i1 %exitcond.not, label %.loopexit44, label %95, !llvm.loop !19

.loopexit44:                                      ; preds = %95, %85, %77
  %.137 = phi i32 [ %.03648, %77 ], [ %.03648, %85 ], [ %90, %95 ]
  %indvars.iv.next68 = add nuw nsw i64 %indvars.iv67, 1
  %98 = load i32, ptr %7, align 8
  %99 = zext i32 %98 to i64
  %100 = icmp samesign ult i64 %indvars.iv.next68, %99
  br i1 %100, label %.lr.ph53.split, label %._crit_edge, !llvm.loop !20

101:                                              ; preds = %._crit_edge
  %102 = getelementptr inbounds nuw i8, ptr %0, i64 8
  %103 = load ptr, ptr %102, align 8
  store i32 0, ptr %103, align 4
  %104 = load i32, ptr %71, align 8
  %.not4257 = icmp ugt i32 %.036.lcssa, %104
  br i1 %.not4257, label %.loopexit, label %.lr.ph60

.lr.ph60:                                         ; preds = %101, %.lr.ph60
  %.358 = phi i32 [ %108, %.lr.ph60 ], [ %.036.lcssa, %101 ]
  %105 = load i32, ptr %7, align 8
  %106 = add i32 %105, -1
  %107 = load ptr, ptr %102, align 8
  %108 = add i32 %.358, 1
  %109 = zext i32 %108 to i64
  %110 = getelementptr inbounds nuw i32, ptr %107, i64 %109
  store i32 %106, ptr %110, align 4
  %111 = load i32, ptr %71, align 8
  %.not42 = icmp ugt i32 %108, %111
  br i1 %.not42, label %.loopexit, label %.lr.ph60, !llvm.loop !21

.loopexit:                                        ; preds = %.lr.ph60, %101, %._crit_edge
  %112 = fcmp olt double %.035.lcssa, 9.999000e-01
  %113 = fcmp ogt double %.035.lcssa, 1.000100e+00
  %or.cond5 = or i1 %112, %113
  br i1 %or.cond5, label %114, label %115

114:                                              ; preds = %.loopexit
  tail call fastcc void @_ZN5o3dgcL8AC_ErrorEPKc(ptr noundef nonnull @.str.13) #16
  unreachable

115:                                              ; preds = %.loopexit
  ret void
}